; Function Attrs: mustprogress nofree norecurse nosync nounwind willreturn memory(argmem: read) uwtable
define dso_local range(i64 -42, 1) i64 @ZSTD_checkCParams(ptr noundef readonly byval(%struct.ZSTD_compressionParameters) align 8 captures(none) %0) local_unnamed_addr #8 {
  %2 = load i32, ptr %0, align 8
  %3 = add i32 %2, -32
  %narrow.i = icmp ult i32 %3, -22
  br i1 %narrow.i, label %26, label %4

4:                                                ; preds = %1
  %5 = getelementptr inbounds nuw i8, ptr %0, i64 4
  %6 = load i32, ptr %5, align 4
  %7 = add i32 %6, -31
  %narrow.i11 = icmp ult i32 %7, -25
  br i1 %narrow.i11, label %26, label %8

8:                                                ; preds = %4
  %9 = getelementptr inbounds nuw i8, ptr %0, i64 8
  %10 = load i32, ptr %9, align 8
  %11 = add i32 %10, -31
  %narrow.i17 = icmp ult i32 %11, -25
  br i1 %narrow.i17, label %26, label %12

12:                                               ; preds = %8
  %13 = getelementptr inbounds nuw i8, ptr %0, i64 12
  %14 = load i32, ptr %13, align 4
  %15 = add i32 %14, -31
  %narrow.i23 = icmp ult i32 %15, -30
  br i1 %narrow.i23, label %26, label %16

16:                                               ; preds = %12
  %17 = getelementptr inbounds nuw i8, ptr %0, i64 16
  %18 = load i32, ptr %17, align 8
  %19 = add i32 %18, -8
  %narrow.i29 = icmp ult i32 %19, -5
  %20 = getelementptr inbounds nuw i8, ptr %0, i64 20
  %21 = load i32, ptr %20, align 4
  %narrow.i35 = icmp ugt i32 %21, 131072
  %or.cond = select i1 %narrow.i29, i1 true, i1 %narrow.i35
  br i1 %or.cond, label %26, label %22

22:                                               ; preds = %16
  %23 = getelementptr inbounds nuw i8, ptr %0, i64 24
  %24 = load i32, ptr %23, align 8
  %25 = add i32 %24, -10
  %narrow.i41 = icmp ult i32 %25, -9
  %. = select i1 %narrow.i41, i64 -42, i64 0
  br label %26

26:                                               ; preds = %22, %16, %12, %8, %4, %1
  %.0 = phi i64 [ -42, %1 ], [ -42, %4 ], [ -42, %8 ], [ -42, %12 ], [ -42, %16 ], [ %., %22 ]
  ret i64 %.0
}